(dp0
L4098L
I1
sL5035L
I1
sL4865L
I10
sL1544L
I1
sL4842L
I1
sL523L
I1
sL12L
I1
sL1549L
I1
sL3086L
I1
sL3087L
I1
sL3088L
I1
sL4740L
I1
sL3092L
I1
sL3095L
I1
sL3609L
I1
sL5147L
I1
sL4126L
I1
sL5216L
I1
sL3107L
I1
sL3109L
I1
sL3110L
I1
sL4136L
I1
sL3113L
I1
sL3117L
I1
sL5213L
I1
sL4147L
I1
sL4446L
I1
sL3128L
I1
sL569L
I1
sL570L
I1
sL571L
I1
sL64L
I1
sL3168L
I1
sL3083L
I1
sL950L
I1
sL3144L
I1
sL4169L
I1
sL5194L
I2
sL3147L
I1
sL3660L
I1
sL3661L
I1
sL4174L
I1
sL592L
I1
sL5201L
I1
sL4168L
I1
sL3667L
I1
sL5206L
I1
sL87L
I1
sL4188L
I1
sL4189L
I1
sL4190L
I1
sL4191L
I1
sL608L
I1
sL4862L
I1
sL99L
I1
sL4196L
I1
sL102L
I1
sL103L
I1
sL105L
I1
sL4202L
I1
sL3431L
I1
sL3181L
I1
sL110L
I1
sL113L
I1
sL3186L
I1
sL4211L
I1
sL3188L
I1
sL4213L
I1
sL2681L
I1
sL2682L
I1
sL2683L
I1
sL2684L
I1
sL4221L
I1
sL2686L
I1
sL2687L
I1
sL640L
I1
sL641L
I1
sL2690L
I1
sL2692L
I1
sL645L
I1
sL2694L
I1
sL4743L
I1
sL2696L
I1
sL2697L
I1
sL2698L
I1
sL2699L
I1
sL2700L
I1
sL2704L
I1
sL2705L
I1
sL2706L
I3
sL2707L
I1
sL148L
I1
sL2709L
I1
sL2710L
I1
sL2711L
I1
sL664L
I1
sL665L
I1
sL2714L
I1
sL2715L
I1
sL2717L
I1
sL2718L
I1
sL2719L
I1
sL160L
I1
sL2723L
I1
sL2725L
I1
sL4209L
I1
sL4786L
I1
sL4234L
I1
sL2233L
I1
sL707L
I1
sL4219L
I1
sL4809L
I1
sL715L
I1
sL2768L
I1
sL2770L
I1
sL4235L
I1
sL4218L
I1
sL2776L
I1
sL2777L
I1
sL2778L
I1
sL2779L
I1
sL2780L
I1
sL2781L
I1
sL2783L
I1
sL2275L
I1
sL2788L
I1
sL2790L
I1
sL5073L
I1
sL232L
I1
sL2793L
I1
sL2794L
I1
sL2797L
I1
sL2798L
I1
sL3824L
I1
sL3827L
I1
sL4855L
I5
sL3320L
I1
sL4857L
I1
sL3322L
I1
sL763L
I1
sL3324L
I1
sL3326L
I3
sL3327L
I2
sL2688L
I1
sL4867L
I1
sL3159L
I1
sL4246L
I1
sL3850L
I1
sL3339L
I1
sL4220L
I1
sL3348L
I1
sL4825L
I1
sL3352L
I1
sL3353L
I1
sL3355L
I1
sL3868L
I1
sL4997L
I1
sL2693L
I1
sL800L
I1
sL801L
I1
sL802L
I1
sL5033L
I2
sL4900L
I1
sL805L
I1
sL4902L
I1
sL807L
I1
sL3370L
I1
sL3372L
I1
sL4911L
I1
sL3378L
I1
sL309L
I1
sL3383L
I1
sL4818L
I1
sL825L
I1
sL4922L
I1
sL3210L
I1
sL4926L
I1
sL3903L
I1
sL3211L
I1
sL3909L
I1
sL3398L
I1
sL3911L
I1
sL840L
I1
sL3401L
I1
sL842L
I1
sL843L
I1
sL3404L
I1
sL3917L
I1
sL3406L
I1
sL847L
I1
sL5011L
I1
sL4963L
I2
sL739L
I1
sL3414L
I1
sL3129L
I1
sL3930L
I1
sL3130L
I1
sL3422L
I1
sL863L
I1
sL4960L
I1
sL865L
I1
sL3131L
I1
sL868L
I1
sL4965L
I1
sL3430L
I1
sL3217L
I1
sL4969L
I1
sL4240L
I1
sL4972L
I1
sL4242L
I1
sL4462L
I1
sL5212L
I1
sL4978L
I1
sL4243L
I1
sL3220L
I1
sL3794L
I1
sL4228L
I1
sL3221L
I1
sL896L
I1
sL3222L
I1
sL4999L
I1
sL5002L
I1
sL5004L
I4
sL5005L
I1
sL5006L
I1
sL5101L
I1
sL2712L
I1
sL4163L
I1
sL3822L
I1
sL5014L
I2
sL2713L
I1
sL5023L
I1
sL4259L
I1
sL5031L
I1
sL936L
I1
sL937L
I1
sL939L
I1
sL3912L
I1
sL434L
I1
sL949L
I1
sL438L
I1
sL4686L
I1
sL3402L
I1
sL5054L
I1
sL2720L
I1
sL4171L
I1
sL3851L
I1
sL4428L
I1
sL5067L
I1
sL460L
I1
sL4107L
I2
sL3749L
I1
sL3732L
I2
sL2515L
I1
sL2516L
I1
sL2517L
I1
sL2518L
I1
sL2519L
I1
sL2520L
I1
sL2523L
I1
sL2524L
I2
sL2525L
I1
sL2526L
I1
sL2527L
I1
sL2528L
I1
sL2529L
I1
sL2530L
I1
sL1507L
I1
sL1511L
I1
sL3836L
I1
sL4075L
I1
sL4077L
I1
sL3056L
I1
sL3923L
I1
sL4085L
I1
sL3063L
I1
sL3064L
I1
sL5114L
I1
sL4093L
I1
sL510L
I1
s.